Archive member included to satisfy reference by file (symbol)

c:/program files (x86)/gnu tools arm embedded/5.3 2016q1/bin/../lib/gcc/arm-none-eabi/5.3.1/../../../../arm-none-eabi/lib/armv7-m\libc.a(lib_a-exit.o)
                              c:/program files (x86)/gnu tools arm embedded/5.3 2016q1/bin/../lib/gcc/arm-none-eabi/5.3.1/../../../../arm-none-eabi/lib/armv7-m/crt0.o (exit)
c:/program files (x86)/gnu tools arm embedded/5.3 2016q1/bin/../lib/gcc/arm-none-eabi/5.3.1/../../../../arm-none-eabi/lib/armv7-m\libc.a(lib_a-impure.o)
                              c:/program files (x86)/gnu tools arm embedded/5.3 2016q1/bin/../lib/gcc/arm-none-eabi/5.3.1/../../../../arm-none-eabi/lib/armv7-m\libc.a(lib_a-exit.o) (_global_impure_ptr)
c:/program files (x86)/gnu tools arm embedded/5.3 2016q1/bin/../lib/gcc/arm-none-eabi/5.3.1/../../../../arm-none-eabi/lib/armv7-m\libc.a(lib_a-init.o)
                              c:/program files (x86)/gnu tools arm embedded/5.3 2016q1/bin/../lib/gcc/arm-none-eabi/5.3.1/../../../../arm-none-eabi/lib/armv7-m/crt0.o (__libc_init_array)
c:/program files (x86)/gnu tools arm embedded/5.3 2016q1/bin/../lib/gcc/arm-none-eabi/5.3.1/../../../../arm-none-eabi/lib/armv7-m\libc.a(lib_a-memset.o)
                              c:/program files (x86)/gnu tools arm embedded/5.3 2016q1/bin/../lib/gcc/arm-none-eabi/5.3.1/../../../../arm-none-eabi/lib/armv7-m/crt0.o (memset)
c:/program files (x86)/gnu tools arm embedded/5.3 2016q1/bin/../lib/gcc/arm-none-eabi/5.3.1/../../../../arm-none-eabi/lib/armv7-m\libc.a(lib_a-__call_atexit.o)
                              c:/program files (x86)/gnu tools arm embedded/5.3 2016q1/bin/../lib/gcc/arm-none-eabi/5.3.1/../../../../arm-none-eabi/lib/armv7-m\libc.a(lib_a-exit.o) (__call_exitprocs)
c:/program files (x86)/gnu tools arm embedded/5.3 2016q1/bin/../lib/gcc/arm-none-eabi/5.3.1/../../../../arm-none-eabi/lib/armv7-m\libc.a(lib_a-atexit.o)
                              c:/program files (x86)/gnu tools arm embedded/5.3 2016q1/bin/../lib/gcc/arm-none-eabi/5.3.1/../../../../arm-none-eabi/lib/armv7-m\libc.a(lib_a-__call_atexit.o) (atexit)
c:/program files (x86)/gnu tools arm embedded/5.3 2016q1/bin/../lib/gcc/arm-none-eabi/5.3.1/../../../../arm-none-eabi/lib/armv7-m\libc.a(lib_a-fini.o)
                              c:/program files (x86)/gnu tools arm embedded/5.3 2016q1/bin/../lib/gcc/arm-none-eabi/5.3.1/../../../../arm-none-eabi/lib/armv7-m\libc.a(lib_a-__call_atexit.o) (__libc_fini_array)
c:/program files (x86)/gnu tools arm embedded/5.3 2016q1/bin/../lib/gcc/arm-none-eabi/5.3.1/../../../../arm-none-eabi/lib/armv7-m\libc.a(lib_a-__atexit.o)
                              c:/program files (x86)/gnu tools arm embedded/5.3 2016q1/bin/../lib/gcc/arm-none-eabi/5.3.1/../../../../arm-none-eabi/lib/armv7-m\libc.a(lib_a-atexit.o) (__register_exitproc)
c:/program files (x86)/gnu tools arm embedded/5.3 2016q1/bin/../lib/gcc/arm-none-eabi/5.3.1/armv7-m\libgcc.a(_arm_addsubsf3.o)
                              ..\obj\Planner.o (__aeabi_fsub)
c:/program files (x86)/gnu tools arm embedded/5.3 2016q1/bin/../lib/gcc/arm-none-eabi/5.3.1/armv7-m\libgcc.a(_arm_muldivsf3.o)
                              ..\obj\Planner.o (__aeabi_fmul)
c:/program files (x86)/gnu tools arm embedded/5.3 2016q1/bin/../lib/gcc/arm-none-eabi/5.3.1/armv7-m\libgcc.a(_arm_cmpsf2.o)
                              ..\obj\Planner.o (__aeabi_fcmpeq)
c:/program files (x86)/gnu tools arm embedded/5.3 2016q1/bin/../lib/gcc/arm-none-eabi/5.3.1/armv7-m\libgcc.a(_arm_fixunssfsi.o)
                              ..\obj\Planner.o (__aeabi_f2uiz)
c:/program files (x86)/gnu tools arm embedded/5.3 2016q1/bin/../lib/gcc/arm-none-eabi/5.3.1/../../../../arm-none-eabi/lib/armv7-m\libg_nano.a(lib_a-errno.o)
                              ..\obj\syscalls.o (__errno)
c:/program files (x86)/gnu tools arm embedded/5.3 2016q1/bin/../lib/gcc/arm-none-eabi/5.3.1/../../../../arm-none-eabi/lib/armv7-m\libg_nano.a(lib_a-malloc.o)
                              ..\obj\Motor.o (malloc)
c:/program files (x86)/gnu tools arm embedded/5.3 2016q1/bin/../lib/gcc/arm-none-eabi/5.3.1/../../../../arm-none-eabi/lib/armv7-m\libg_nano.a(lib_a-nano-freer.o)
                              c:/program files (x86)/gnu tools arm embedded/5.3 2016q1/bin/../lib/gcc/arm-none-eabi/5.3.1/../../../../arm-none-eabi/lib/armv7-m\libg_nano.a(lib_a-malloc.o) (_free_r)
c:/program files (x86)/gnu tools arm embedded/5.3 2016q1/bin/../lib/gcc/arm-none-eabi/5.3.1/../../../../arm-none-eabi/lib/armv7-m\libg_nano.a(lib_a-nano-mallocr.o)
                              c:/program files (x86)/gnu tools arm embedded/5.3 2016q1/bin/../lib/gcc/arm-none-eabi/5.3.1/../../../../arm-none-eabi/lib/armv7-m\libg_nano.a(lib_a-malloc.o) (_malloc_r)
c:/program files (x86)/gnu tools arm embedded/5.3 2016q1/bin/../lib/gcc/arm-none-eabi/5.3.1/../../../../arm-none-eabi/lib/armv7-m\libg_nano.a(lib_a-sbrkr.o)
                              c:/program files (x86)/gnu tools arm embedded/5.3 2016q1/bin/../lib/gcc/arm-none-eabi/5.3.1/../../../../arm-none-eabi/lib/armv7-m\libg_nano.a(lib_a-nano-mallocr.o) (_sbrk_r)
c:/program files (x86)/gnu tools arm embedded/5.3 2016q1/bin/../lib/gcc/arm-none-eabi/5.3.1/../../../../arm-none-eabi/lib/armv7-m\libg_nano.a(lib_a-reent.o)
                              c:/program files (x86)/gnu tools arm embedded/5.3 2016q1/bin/../lib/gcc/arm-none-eabi/5.3.1/../../../../arm-none-eabi/lib/armv7-m\libg_nano.a(lib_a-sbrkr.o) (errno)

Allocating common symbols
Common symbol       size              file

rxBufferHead        0x2               ..\obj\Usart.o
motor2              0x4               ..\obj\Motor.o
charCounter         0x1               ..\obj\Protocol.o
bufferTail          0x1               ..\obj\Planner.o
motorInfoBuffer     0x6               ..\obj\Dma.o
errno               0x4               c:/program files (x86)/gnu tools arm embedded/5.3 2016q1/bin/../lib/gcc/arm-none-eabi/5.3.1/../../../../arm-none-eabi/lib/armv7-m\libg_nano.a(lib_a-reent.o)
blockBuffer         0x318             ..\obj\Planner.o
currentBlock        0x4               ..\obj\Stepper.o
sys                 0xc               ..\obj\System.o
line                0x100             ..\obj\Protocol.o
bufferHead          0x1               ..\obj\Planner.o
nextBufferHead      0x1               ..\obj\Planner.o
wakeUpState         0x1               ..\obj\Stepper.o
rxBufferTail        0x2               ..\obj\Usart.o
stExecutor          0x34              ..\obj\Stepper.o
signal              0x4               ..\obj\main.o
rxBuffer            0x100             ..\obj\Usart.o
availableInsertBlock
                    0x1               ..\obj\Stepper.o
motor1              0x4               ..\obj\Motor.o
plExecutor          0x1c              ..\obj\Protocol.o
motorDriveBuffer    0x3               ..\obj\Dma.o
motor0              0x4               ..\obj\Motor.o
outputBits          0x1               ..\obj\Stepper.o

Discarded input sections

 .text          0x00000000        0x0 c:/program files (x86)/gnu tools arm embedded/5.3 2016q1/bin/../lib/gcc/arm-none-eabi/5.3.1/armv7-m/crti.o
 .data          0x00000000        0x0 c:/program files (x86)/gnu tools arm embedded/5.3 2016q1/bin/../lib/gcc/arm-none-eabi/5.3.1/armv7-m/crti.o
 .bss           0x00000000        0x0 c:/program files (x86)/gnu tools arm embedded/5.3 2016q1/bin/../lib/gcc/arm-none-eabi/5.3.1/armv7-m/crti.o
 .data          0x00000000        0x4 c:/program files (x86)/gnu tools arm embedded/5.3 2016q1/bin/../lib/gcc/arm-none-eabi/5.3.1/armv7-m/crtbegin.o
 .text          0x00000000       0x74 c:/program files (x86)/gnu tools arm embedded/5.3 2016q1/bin/../lib/gcc/arm-none-eabi/5.3.1/../../../../arm-none-eabi/lib/armv7-m/crt0.o
 .data          0x00000000        0x0 c:/program files (x86)/gnu tools arm embedded/5.3 2016q1/bin/../lib/gcc/arm-none-eabi/5.3.1/../../../../arm-none-eabi/lib/armv7-m/crt0.o
 .bss           0x00000000        0x0 c:/program files (x86)/gnu tools arm embedded/5.3 2016q1/bin/../lib/gcc/arm-none-eabi/5.3.1/../../../../arm-none-eabi/lib/armv7-m/crt0.o
 .ARM.extab     0x00000000        0x0 c:/program files (x86)/gnu tools arm embedded/5.3 2016q1/bin/../lib/gcc/arm-none-eabi/5.3.1/../../../../arm-none-eabi/lib/armv7-m/crt0.o
 .ARM.exidx     0x00000000        0x8 c:/program files (x86)/gnu tools arm embedded/5.3 2016q1/bin/../lib/gcc/arm-none-eabi/5.3.1/../../../../arm-none-eabi/lib/armv7-m/crt0.o
 .ARM.attributes
                0x00000000       0x1b c:/program files (x86)/gnu tools arm embedded/5.3 2016q1/bin/../lib/gcc/arm-none-eabi/5.3.1/../../../../arm-none-eabi/lib/armv7-m/crt0.o
 .text          0x00000000        0x0 c:/program files (x86)/gnu tools arm embedded/5.3 2016q1/bin/../lib/gcc/arm-none-eabi/5.3.1/../../../../arm-none-eabi/lib/armv7-m\libc.a(lib_a-exit.o)
 .data          0x00000000        0x0 c:/program files (x86)/gnu tools arm embedded/5.3 2016q1/bin/../lib/gcc/arm-none-eabi/5.3.1/../../../../arm-none-eabi/lib/armv7-m\libc.a(lib_a-exit.o)
 .bss           0x00000000        0x0 c:/program files (x86)/gnu tools arm embedded/5.3 2016q1/bin/../lib/gcc/arm-none-eabi/5.3.1/../../../../arm-none-eabi/lib/armv7-m\libc.a(lib_a-exit.o)
 .text.exit     0x00000000       0x20 c:/program files (x86)/gnu tools arm embedded/5.3 2016q1/bin/../lib/gcc/arm-none-eabi/5.3.1/../../../../arm-none-eabi/lib/armv7-m\libc.a(lib_a-exit.o)
 .debug_frame   0x00000000       0x28 c:/program files (x86)/gnu tools arm embedded/5.3 2016q1/bin/../lib/gcc/arm-none-eabi/5.3.1/../../../../arm-none-eabi/lib/armv7-m\libc.a(lib_a-exit.o)
 .ARM.attributes
                0x00000000       0x2d c:/program files (x86)/gnu tools arm embedded/5.3 2016q1/bin/../lib/gcc/arm-none-eabi/5.3.1/../../../../arm-none-eabi/lib/armv7-m\libc.a(lib_a-exit.o)
 .text          0x00000000        0x0 c:/program files (x86)/gnu tools arm embedded/5.3 2016q1/bin/../lib/gcc/arm-none-eabi/5.3.1/../../../../arm-none-eabi/lib/armv7-m\libc.a(lib_a-impure.o)
 .data          0x00000000        0x0 c:/program files (x86)/gnu tools arm embedded/5.3 2016q1/bin/../lib/gcc/arm-none-eabi/5.3.1/../../../../arm-none-eabi/lib/armv7-m\libc.a(lib_a-impure.o)
 .bss           0x00000000        0x0 c:/program files (x86)/gnu tools arm embedded/5.3 2016q1/bin/../lib/gcc/arm-none-eabi/5.3.1/../../../../arm-none-eabi/lib/armv7-m\libc.a(lib_a-impure.o)
 .ARM.attributes
                0x00000000       0x2d c:/program files (x86)/gnu tools arm embedded/5.3 2016q1/bin/../lib/gcc/arm-none-eabi/5.3.1/../../../../arm-none-eabi/lib/armv7-m\libc.a(lib_a-impure.o)
 .text          0x00000000        0x0 c:/program files (x86)/gnu tools arm embedded/5.3 2016q1/bin/../lib/gcc/arm-none-eabi/5.3.1/../../../../arm-none-eabi/lib/armv7-m\libc.a(lib_a-init.o)
 .data          0x00000000        0x0 c:/program files (x86)/gnu tools arm embedded/5.3 2016q1/bin/../lib/gcc/arm-none-eabi/5.3.1/../../../../arm-none-eabi/lib/armv7-m\libc.a(lib_a-init.o)
 .bss           0x00000000        0x0 c:/program files (x86)/gnu tools arm embedded/5.3 2016q1/bin/../lib/gcc/arm-none-eabi/5.3.1/../../../../arm-none-eabi/lib/armv7-m\libc.a(lib_a-init.o)
 .debug_frame   0x00000000       0x2c c:/program files (x86)/gnu tools arm embedded/5.3 2016q1/bin/../lib/gcc/arm-none-eabi/5.3.1/../../../../arm-none-eabi/lib/armv7-m\libc.a(lib_a-init.o)
 .ARM.attributes
                0x00000000       0x2d c:/program files (x86)/gnu tools arm embedded/5.3 2016q1/bin/../lib/gcc/arm-none-eabi/5.3.1/../../../../arm-none-eabi/lib/armv7-m\libc.a(lib_a-init.o)
 .text          0x00000000        0x0 c:/program files (x86)/gnu tools arm embedded/5.3 2016q1/bin/../lib/gcc/arm-none-eabi/5.3.1/../../../../arm-none-eabi/lib/armv7-m\libc.a(lib_a-memset.o)
 .data          0x00000000        0x0 c:/program files (x86)/gnu tools arm embedded/5.3 2016q1/bin/../lib/gcc/arm-none-eabi/5.3.1/../../../../arm-none-eabi/lib/armv7-m\libc.a(lib_a-memset.o)
 .bss           0x00000000        0x0 c:/program files (x86)/gnu tools arm embedded/5.3 2016q1/bin/../lib/gcc/arm-none-eabi/5.3.1/../../../../arm-none-eabi/lib/armv7-m\libc.a(lib_a-memset.o)
 .debug_frame   0x00000000       0x34 c:/program files (x86)/gnu tools arm embedded/5.3 2016q1/bin/../lib/gcc/arm-none-eabi/5.3.1/../../../../arm-none-eabi/lib/armv7-m\libc.a(lib_a-memset.o)
 .ARM.attributes
                0x00000000       0x2d c:/program files (x86)/gnu tools arm embedded/5.3 2016q1/bin/../lib/gcc/arm-none-eabi/5.3.1/../../../../arm-none-eabi/lib/armv7-m\libc.a(lib_a-memset.o)
 .text          0x00000000        0x0 c:/program files (x86)/gnu tools arm embedded/5.3 2016q1/bin/../lib/gcc/arm-none-eabi/5.3.1/../../../../arm-none-eabi/lib/armv7-m\libc.a(lib_a-__call_atexit.o)
 .data          0x00000000        0x0 c:/program files (x86)/gnu tools arm embedded/5.3 2016q1/bin/../lib/gcc/arm-none-eabi/5.3.1/../../../../arm-none-eabi/lib/armv7-m\libc.a(lib_a-__call_atexit.o)
 .bss           0x00000000        0x0 c:/program files (x86)/gnu tools arm embedded/5.3 2016q1/bin/../lib/gcc/arm-none-eabi/5.3.1/../../../../arm-none-eabi/lib/armv7-m\libc.a(lib_a-__call_atexit.o)
 .text.__call_exitprocs
                0x00000000       0xd8 c:/program files (x86)/gnu tools arm embedded/5.3 2016q1/bin/../lib/gcc/arm-none-eabi/5.3.1/../../../../arm-none-eabi/lib/armv7-m\libc.a(lib_a-__call_atexit.o)
 .debug_frame   0x00000000       0x50 c:/program files (x86)/gnu tools arm embedded/5.3 2016q1/bin/../lib/gcc/arm-none-eabi/5.3.1/../../../../arm-none-eabi/lib/armv7-m\libc.a(lib_a-__call_atexit.o)
 .ARM.attributes
                0x00000000       0x2d c:/program files (x86)/gnu tools arm embedded/5.3 2016q1/bin/../lib/gcc/arm-none-eabi/5.3.1/../../../../arm-none-eabi/lib/armv7-m\libc.a(lib_a-__call_atexit.o)
 .text          0x00000000        0x0 c:/program files (x86)/gnu tools arm embedded/5.3 2016q1/bin/../lib/gcc/arm-none-eabi/5.3.1/../../../../arm-none-eabi/lib/armv7-m\libc.a(lib_a-atexit.o)
 .data          0x00000000        0x0 c:/program files (x86)/gnu tools arm embedded/5.3 2016q1/bin/../lib/gcc/arm-none-eabi/5.3.1/../../../../arm-none-eabi/lib/armv7-m\libc.a(lib_a-atexit.o)
 .bss           0x00000000        0x0 c:/program files (x86)/gnu tools arm embedded/5.3 2016q1/bin/../lib/gcc/arm-none-eabi/5.3.1/../../../../arm-none-eabi/lib/armv7-m\libc.a(lib_a-atexit.o)
 .debug_frame   0x00000000       0x20 c:/program files (x86)/gnu tools arm embedded/5.3 2016q1/bin/../lib/gcc/arm-none-eabi/5.3.1/../../../../arm-none-eabi/lib/armv7-m\libc.a(lib_a-atexit.o)
 .ARM.attributes
                0x00000000       0x2d c:/program files (x86)/gnu tools arm embedded/5.3 2016q1/bin/../lib/gcc/arm-none-eabi/5.3.1/../../../../arm-none-eabi/lib/armv7-m\libc.a(lib_a-atexit.o)
 .text          0x00000000        0x0 c:/program files (x86)/gnu tools arm embedded/5.3 2016q1/bin/../lib/gcc/arm-none-eabi/5.3.1/../../../../arm-none-eabi/lib/armv7-m\libc.a(lib_a-fini.o)
 .data          0x00000000        0x0 c:/program files (x86)/gnu tools arm embedded/5.3 2016q1/bin/../lib/gcc/arm-none-eabi/5.3.1/../../../../arm-none-eabi/lib/armv7-m\libc.a(lib_a-fini.o)
 .bss           0x00000000        0x0 c:/program files (x86)/gnu tools arm embedded/5.3 2016q1/bin/../lib/gcc/arm-none-eabi/5.3.1/../../../../arm-none-eabi/lib/armv7-m\libc.a(lib_a-fini.o)
 .debug_frame   0x00000000       0x34 c:/program files (x86)/gnu tools arm embedded/5.3 2016q1/bin/../lib/gcc/arm-none-eabi/5.3.1/../../../../arm-none-eabi/lib/armv7-m\libc.a(lib_a-fini.o)
 .ARM.attributes
                0x00000000       0x2d c:/program files (x86)/gnu tools arm embedded/5.3 2016q1/bin/../lib/gcc/arm-none-eabi/5.3.1/../../../../arm-none-eabi/lib/armv7-m\libc.a(lib_a-fini.o)
 .text          0x00000000        0x0 c:/program files (x86)/gnu tools arm embedded/5.3 2016q1/bin/../lib/gcc/arm-none-eabi/5.3.1/../../../../arm-none-eabi/lib/armv7-m\libc.a(lib_a-__atexit.o)
 .data          0x00000000        0x0 c:/program files (x86)/gnu tools arm embedded/5.3 2016q1/bin/../lib/gcc/arm-none-eabi/5.3.1/../../../../arm-none-eabi/lib/armv7-m\libc.a(lib_a-__atexit.o)
 .bss           0x00000000        0x0 c:/program files (x86)/gnu tools arm embedded/5.3 2016q1/bin/../lib/gcc/arm-none-eabi/5.3.1/../../../../arm-none-eabi/lib/armv7-m\libc.a(lib_a-__atexit.o)
 .debug_frame   0x00000000       0x34 c:/program files (x86)/gnu tools arm embedded/5.3 2016q1/bin/../lib/gcc/arm-none-eabi/5.3.1/../../../../arm-none-eabi/lib/armv7-m\libc.a(lib_a-__atexit.o)
 .ARM.attributes
                0x00000000       0x2d c:/program files (x86)/gnu tools arm embedded/5.3 2016q1/bin/../lib/gcc/arm-none-eabi/5.3.1/../../../../arm-none-eabi/lib/armv7-m\libc.a(lib_a-__atexit.o)
 .text          0x00000000        0x0 ..\obj\SystemMap.o
 .data          0x00000000        0x0 ..\obj\SystemMap.o
 .bss           0x00000000        0x0 ..\obj\SystemMap.o
 .debug_line    0x00000000        0x0 ..\obj\SystemMap.o
 .debug_str     0x00000000       0xac ..\obj\SystemMap.o
 .comment       0x00000000       0x6f ..\obj\SystemMap.o
 .ARM.attributes
                0x00000000       0x33 ..\obj\SystemMap.o
 .data          0x00000000        0x0 ..\obj\Protocol.o
 .bss           0x00000000        0x0 ..\obj\Protocol.o
 .data          0x00000000        0x4 ..\obj\syscalls.o
 .data          0x00000000        0x0 ..\obj\Stepper.o
 .bss           0x00000000        0x0 ..\obj\Stepper.o
 .data          0x00000000        0x0 ..\obj\stm32f10x_usart.o
 .bss           0x00000000        0x0 ..\obj\stm32f10x_usart.o
 .data          0x00000000        0x0 ..\obj\Tim.o
 .bss           0x00000000        0x0 ..\obj\Tim.o
 .data          0x00000000        0x0 ..\obj\Dma.o
 .bss           0x00000000        0x0 ..\obj\Dma.o
 .data          0x00000000        0x0 ..\obj\Usart.o
 .bss           0x00000000        0x0 ..\obj\Usart.o
 .text          0x00000000        0x0 ..\obj\HardwareConfig.o
 .data          0x00000000        0x0 ..\obj\HardwareConfig.o
 .bss           0x00000000        0x0 ..\obj\HardwareConfig.o
 .debug_line    0x00000000        0x0 ..\obj\HardwareConfig.o
 .debug_str     0x00000000       0xba ..\obj\HardwareConfig.o
 .comment       0x00000000       0x6f ..\obj\HardwareConfig.o
 .ARM.attributes
                0x00000000       0x33 ..\obj\HardwareConfig.o
 .data          0x00000000        0x0 ..\obj\stm32f10x_gpio.o
 .bss           0x00000000        0x0 ..\obj\stm32f10x_gpio.o
 .bss           0x00000000        0x0 ..\obj\stm32f10x_rcc.o
 .data          0x00000000        0x0 ..\obj\Spi.o
 .bss           0x00000000        0x0 ..\obj\Spi.o
 .data          0x00000000        0x0 ..\obj\Motor.o
 .bss           0x00000000        0x0 ..\obj\Motor.o
 .data          0x00000000        0x0 ..\obj\stm32f10x_dma.o
 .bss           0x00000000        0x0 ..\obj\stm32f10x_dma.o
 .bss           0x00000000        0x0 ..\obj\system_stm32f10x.o
 .text          0x00000000       0x14 ..\obj\startup_stm32f103xb.o
 .data          0x00000000        0x0 ..\obj\startup_stm32f103xb.o
 .bss           0x00000000        0x0 ..\obj\startup_stm32f103xb.o
 .data          0x00000000        0x0 ..\obj\Gpio.o
 .bss           0x00000000        0x0 ..\obj\Gpio.o
 .data          0x00000000        0x0 ..\obj\stm32f10x_tim.o
 .bss           0x00000000        0x0 ..\obj\stm32f10x_tim.o
 .data          0x00000000        0x0 ..\obj\Planner.o
 .bss           0x00000000        0x0 ..\obj\Planner.o
 .text          0x00000000       0x24 ..\obj\System.o
 .data          0x00000000        0x0 ..\obj\System.o
 .bss           0x00000000        0x0 ..\obj\System.o
 .data          0x00000000        0x0 ..\obj\stm32f10x_spi.o
 .bss           0x00000000        0x0 ..\obj\stm32f10x_spi.o
 .text          0x00000000      0x18c ..\obj\misc.o
 .data          0x00000000        0x0 ..\obj\misc.o
 .bss           0x00000000        0x0 ..\obj\misc.o
 .debug_info    0x00000000      0x556 ..\obj\misc.o
 .debug_abbrev  0x00000000      0x147 ..\obj\misc.o
 .debug_aranges
                0x00000000       0x20 ..\obj\misc.o
 .debug_line    0x00000000      0x286 ..\obj\misc.o
 .debug_str     0x00000000      0x3d5 ..\obj\misc.o
 .comment       0x00000000       0x6f ..\obj\misc.o
 .debug_frame   0x00000000       0xd8 ..\obj\misc.o
 .ARM.attributes
                0x00000000       0x33 ..\obj\misc.o
 .data          0x00000000        0x0 ..\obj\main.o
 .bss           0x00000000        0x0 ..\obj\main.o
 COMMON         0x00000000        0x4 ..\obj\main.o
 .data          0x00000000        0x0 c:/program files (x86)/gnu tools arm embedded/5.3 2016q1/bin/../lib/gcc/arm-none-eabi/5.3.1/armv7-m\libgcc.a(_arm_addsubsf3.o)
 .bss           0x00000000        0x0 c:/program files (x86)/gnu tools arm embedded/5.3 2016q1/bin/../lib/gcc/arm-none-eabi/5.3.1/armv7-m\libgcc.a(_arm_addsubsf3.o)
 .data          0x00000000        0x0 c:/program files (x86)/gnu tools arm embedded/5.3 2016q1/bin/../lib/gcc/arm-none-eabi/5.3.1/armv7-m\libgcc.a(_arm_muldivsf3.o)
 .bss           0x00000000        0x0 c:/program files (x86)/gnu tools arm embedded/5.3 2016q1/bin/../lib/gcc/arm-none-eabi/5.3.1/armv7-m\libgcc.a(_arm_muldivsf3.o)
 .data          0x00000000        0x0 c:/program files (x86)/gnu tools arm embedded/5.3 2016q1/bin/../lib/gcc/arm-none-eabi/5.3.1/armv7-m\libgcc.a(_arm_cmpsf2.o)
 .bss           0x00000000        0x0 c:/program files (x86)/gnu tools arm embedded/5.3 2016q1/bin/../lib/gcc/arm-none-eabi/5.3.1/armv7-m\libgcc.a(_arm_cmpsf2.o)
 .data          0x00000000        0x0 c:/program files (x86)/gnu tools arm embedded/5.3 2016q1/bin/../lib/gcc/arm-none-eabi/5.3.1/armv7-m\libgcc.a(_arm_fixunssfsi.o)
 .bss           0x00000000        0x0 c:/program files (x86)/gnu tools arm embedded/5.3 2016q1/bin/../lib/gcc/arm-none-eabi/5.3.1/armv7-m\libgcc.a(_arm_fixunssfsi.o)
 .text          0x00000000        0x0 c:/program files (x86)/gnu tools arm embedded/5.3 2016q1/bin/../lib/gcc/arm-none-eabi/5.3.1/../../../../arm-none-eabi/lib/armv7-m\libg_nano.a(lib_a-errno.o)
 .data          0x00000000        0x0 c:/program files (x86)/gnu tools arm embedded/5.3 2016q1/bin/../lib/gcc/arm-none-eabi/5.3.1/../../../../arm-none-eabi/lib/armv7-m\libg_nano.a(lib_a-errno.o)
 .bss           0x00000000        0x0 c:/program files (x86)/gnu tools arm embedded/5.3 2016q1/bin/../lib/gcc/arm-none-eabi/5.3.1/../../../../arm-none-eabi/lib/armv7-m\libg_nano.a(lib_a-errno.o)
 .text          0x00000000        0x0 c:/program files (x86)/gnu tools arm embedded/5.3 2016q1/bin/../lib/gcc/arm-none-eabi/5.3.1/../../../../arm-none-eabi/lib/armv7-m\libg_nano.a(lib_a-malloc.o)
 .data          0x00000000        0x0 c:/program files (x86)/gnu tools arm embedded/5.3 2016q1/bin/../lib/gcc/arm-none-eabi/5.3.1/../../../../arm-none-eabi/lib/armv7-m\libg_nano.a(lib_a-malloc.o)
 .bss           0x00000000        0x0 c:/program files (x86)/gnu tools arm embedded/5.3 2016q1/bin/../lib/gcc/arm-none-eabi/5.3.1/../../../../arm-none-eabi/lib/armv7-m\libg_nano.a(lib_a-malloc.o)
 .text.free     0x00000000       0x10 c:/program files (x86)/gnu tools arm embedded/5.3 2016q1/bin/../lib/gcc/arm-none-eabi/5.3.1/../../../../arm-none-eabi/lib/armv7-m\libg_nano.a(lib_a-malloc.o)
 .text          0x00000000        0x0 c:/program files (x86)/gnu tools arm embedded/5.3 2016q1/bin/../lib/gcc/arm-none-eabi/5.3.1/../../../../arm-none-eabi/lib/armv7-m\libg_nano.a(lib_a-nano-freer.o)
 .data          0x00000000        0x0 c:/program files (x86)/gnu tools arm embedded/5.3 2016q1/bin/../lib/gcc/arm-none-eabi/5.3.1/../../../../arm-none-eabi/lib/armv7-m\libg_nano.a(lib_a-nano-freer.o)
 .bss           0x00000000        0x0 c:/program files (x86)/gnu tools arm embedded/5.3 2016q1/bin/../lib/gcc/arm-none-eabi/5.3.1/../../../../arm-none-eabi/lib/armv7-m\libg_nano.a(lib_a-nano-freer.o)
 .text._free_r  0x00000000       0x88 c:/program files (x86)/gnu tools arm embedded/5.3 2016q1/bin/../lib/gcc/arm-none-eabi/5.3.1/../../../../arm-none-eabi/lib/armv7-m\libg_nano.a(lib_a-nano-freer.o)
 .debug_frame   0x00000000       0x2c c:/program files (x86)/gnu tools arm embedded/5.3 2016q1/bin/../lib/gcc/arm-none-eabi/5.3.1/../../../../arm-none-eabi/lib/armv7-m\libg_nano.a(lib_a-nano-freer.o)
 .ARM.attributes
                0x00000000       0x2d c:/program files (x86)/gnu tools arm embedded/5.3 2016q1/bin/../lib/gcc/arm-none-eabi/5.3.1/../../../../arm-none-eabi/lib/armv7-m\libg_nano.a(lib_a-nano-freer.o)
 .text          0x00000000        0x0 c:/program files (x86)/gnu tools arm embedded/5.3 2016q1/bin/../lib/gcc/arm-none-eabi/5.3.1/../../../../arm-none-eabi/lib/armv7-m\libg_nano.a(lib_a-nano-mallocr.o)
 .data          0x00000000        0x0 c:/program files (x86)/gnu tools arm embedded/5.3 2016q1/bin/../lib/gcc/arm-none-eabi/5.3.1/../../../../arm-none-eabi/lib/armv7-m\libg_nano.a(lib_a-nano-mallocr.o)
 .bss           0x00000000        0x0 c:/program files (x86)/gnu tools arm embedded/5.3 2016q1/bin/../lib/gcc/arm-none-eabi/5.3.1/../../../../arm-none-eabi/lib/armv7-m\libg_nano.a(lib_a-nano-mallocr.o)
 .text          0x00000000        0x0 c:/program files (x86)/gnu tools arm embedded/5.3 2016q1/bin/../lib/gcc/arm-none-eabi/5.3.1/../../../../arm-none-eabi/lib/armv7-m\libg_nano.a(lib_a-sbrkr.o)
 .data          0x00000000        0x0 c:/program files (x86)/gnu tools arm embedded/5.3 2016q1/bin/../lib/gcc/arm-none-eabi/5.3.1/../../../../arm-none-eabi/lib/armv7-m\libg_nano.a(lib_a-sbrkr.o)
 .bss           0x00000000        0x0 c:/program files (x86)/gnu tools arm embedded/5.3 2016q1/bin/../lib/gcc/arm-none-eabi/5.3.1/../../../../arm-none-eabi/lib/armv7-m\libg_nano.a(lib_a-sbrkr.o)
 .text          0x00000000        0x0 c:/program files (x86)/gnu tools arm embedded/5.3 2016q1/bin/../lib/gcc/arm-none-eabi/5.3.1/../../../../arm-none-eabi/lib/armv7-m\libg_nano.a(lib_a-reent.o)
 .data          0x00000000        0x0 c:/program files (x86)/gnu tools arm embedded/5.3 2016q1/bin/../lib/gcc/arm-none-eabi/5.3.1/../../../../arm-none-eabi/lib/armv7-m\libg_nano.a(lib_a-reent.o)
 .bss           0x00000000        0x0 c:/program files (x86)/gnu tools arm embedded/5.3 2016q1/bin/../lib/gcc/arm-none-eabi/5.3.1/../../../../arm-none-eabi/lib/armv7-m\libg_nano.a(lib_a-reent.o)
 .text.cleanup_glue
                0x00000000       0x1a c:/program files (x86)/gnu tools arm embedded/5.3 2016q1/bin/../lib/gcc/arm-none-eabi/5.3.1/../../../../arm-none-eabi/lib/armv7-m\libg_nano.a(lib_a-reent.o)
 .text._reclaim_reent
                0x00000000       0xb4 c:/program files (x86)/gnu tools arm embedded/5.3 2016q1/bin/../lib/gcc/arm-none-eabi/5.3.1/../../../../arm-none-eabi/lib/armv7-m\libg_nano.a(lib_a-reent.o)
 .text          0x00000000        0x0 c:/program files (x86)/gnu tools arm embedded/5.3 2016q1/bin/../lib/gcc/arm-none-eabi/5.3.1/armv7-m/crtend.o
 .data          0x00000000        0x0 c:/program files (x86)/gnu tools arm embedded/5.3 2016q1/bin/../lib/gcc/arm-none-eabi/5.3.1/armv7-m/crtend.o
 .bss           0x00000000        0x0 c:/program files (x86)/gnu tools arm embedded/5.3 2016q1/bin/../lib/gcc/arm-none-eabi/5.3.1/armv7-m/crtend.o
 .eh_frame      0x00000000        0x4 c:/program files (x86)/gnu tools arm embedded/5.3 2016q1/bin/../lib/gcc/arm-none-eabi/5.3.1/armv7-m/crtend.o
 .jcr           0x00000000        0x4 c:/program files (x86)/gnu tools arm embedded/5.3 2016q1/bin/../lib/gcc/arm-none-eabi/5.3.1/armv7-m/crtend.o
 .ARM.attributes
                0x00000000       0x2d c:/program files (x86)/gnu tools arm embedded/5.3 2016q1/bin/../lib/gcc/arm-none-eabi/5.3.1/armv7-m/crtend.o
 .text          0x00000000        0x0 c:/program files (x86)/gnu tools arm embedded/5.3 2016q1/bin/../lib/gcc/arm-none-eabi/5.3.1/armv7-m/crtn.o
 .data          0x00000000        0x0 c:/program files (x86)/gnu tools arm embedded/5.3 2016q1/bin/../lib/gcc/arm-none-eabi/5.3.1/armv7-m/crtn.o
 .bss           0x00000000        0x0 c:/program files (x86)/gnu tools arm embedded/5.3 2016q1/bin/../lib/gcc/arm-none-eabi/5.3.1/armv7-m/crtn.o

Memory Configuration

Name             Origin             Length             Attributes
FLASH            0x08000000         0x00010000         xr
RAM              0x20000000         0x00005000         xrw
*default*        0x00000000         0xffffffff

Linker script and memory map

LOAD c:/program files (x86)/gnu tools arm embedded/5.3 2016q1/bin/../lib/gcc/arm-none-eabi/5.3.1/armv7-m/crti.o
LOAD c:/program files (x86)/gnu tools arm embedded/5.3 2016q1/bin/../lib/gcc/arm-none-eabi/5.3.1/armv7-m/crtbegin.o
LOAD c:/program files (x86)/gnu tools arm embedded/5.3 2016q1/bin/../lib/gcc/arm-none-eabi/5.3.1/../../../../arm-none-eabi/lib/armv7-m/crt0.o
                0x20004fff                _estack = 0x20004fff
                0x00000200                _Min_Heap_Size = 0x200
                0x00000400                _Min_Stack_Size = 0x400

.isr_vector     0x08000000      0x10c
                0x08000000                . = ALIGN (0x4)
 *(.isr_vector)
 .isr_vector    0x08000000      0x10c ..\obj\startup_stm32f103xb.o
                0x08000000                g_pfnVectors
                0x0800010c                . = ALIGN (0x4)

.text           0x0800010c     0x67d4
                0x0800010c                . = ALIGN (0x4)
 *(.text)
 .text          0x0800010c       0x5c c:/program files (x86)/gnu tools arm embedded/5.3 2016q1/bin/../lib/gcc/arm-none-eabi/5.3.1/armv7-m/crtbegin.o
 .text          0x08000168      0x304 ..\obj\Protocol.o
                0x08000198                dataProcess
                0x08000224                lineInterpretToBlock
                0x08000378                getLetterAndValue
                0x08000404                readValue
 .text          0x0800046c      0x270 ..\obj\syscalls.o
                0x0800046c                initialise_monitor_handles
                0x08000478                _getpid
                0x08000488                _kill
                0x080004a8                _exit
                0x080004bc                _read
                0x080004f8                _write
                0x08000530                _sbrk
                0x08000588                _close
                0x080005a0                _fstat
                0x080005c0                _isatty
                0x080005d4                _lseek
                0x080005ec                _open
                0x08000608                _wait
                0x08000628                _unlink
                0x08000648                _times
                0x08000660                _stat
                0x08000680                _link
                0x080006a0                _fork
                0x080006b8                _execve
 .text          0x080006dc      0x7fc ..\obj\Stepper.o
                0x08000740                TIM2_IRQHandler
                0x08000774                motorRateControlProcess
                0x080007ac                accelerateAndDeccelerateEvent
                0x080007e8                accelerateRate
                0x08000830                iterateCycleCounter
                0x08000874                setStepEventPerMin
                0x080008b8                setCyclePerStepEventToTimer
                0x0800090c                deccelerateRate
                0x08000934                initializeDecceleration
                0x08000970                deccelerationAbjustment
                0x080009d0                nominalRate
                0x08000a04                stepperInit
                0x08000a24                sleep
                0x08000a3c                wakeUp
                0x08000a54                transferInfoToStExecutor
                0x08000ad8                stExecutorInitProcess
                0x08000b10                executeStepDisplacementProcess
                0x08000b80                getStepStatus
                0x08000bac                getMoveDireaction
                0x08000bd8                planningDataSending
                0x08000cc4                executeStepDisplacement
                0x08000d88                bresenhamAlgorithm
                0x08000dd8                iterate
                0x08000e1c                getStatus
                0x08000e50                getOutputFlagStatus
                0x08000e94                getDireationFlag
 .text          0x08000ed8      0x904 ..\obj\stm32f10x_usart.o
                0x08000ed8                USART_DeInit
                0x08000f90                USART_Init
                0x08001104                USART_StructInit
                0x0800113c                USART_ClockInit
                0x08001194                USART_ClockStructInit
                0x080011c0                USART_Cmd
                0x08001200                USART_ITConfig
                0x08001290                USART_DMACmd
                0x080012d8                USART_SetAddress
                0x08001310                USART_WakeUpConfig
                0x08001348                USART_ReceiverWakeUpCmd
                0x08001388                USART_LINBreakDetectLengthConfig
                0x080013c0                USART_LINCmd
                0x08001400                USART_SendData
                0x08001424                USART_ReceiveData
                0x08001444                USART_SendBreak
                0x08001468                USART_SetGuardTime
                0x080014a4                USART_SetPrescaler
                0x080014dc                USART_SmartCardCmd
                0x0800151c                USART_SmartCardNACKCmd
                0x0800155c                USART_HalfDuplexCmd
                0x0800159c                USART_OverSampling8Cmd
                0x080015e0                USART_OneBitMethodCmd
                0x08001620                USART_IrDAConfig
                0x08001658                USART_IrDACmd
                0x08001698                USART_GetFlagStatus
                0x080016d0                USART_ClearFlag
                0x080016f0                USART_GetITStatus
                0x080017a4                USART_ClearITPendingBit
 .text          0x080017dc      0x1e0 ..\obj\Tim.o
                0x08001860                TimerConfig
 .text          0x080019bc      0x2a4 ..\obj\Dma.o
                0x08001a74                DMA1_Channel3_IRQHandler
                0x08001a8c                sendSetStep
                0x08001ac8                sendResetStep
                0x08001b04                setDataNumber
                0x08001b2c                DmaConfig
 .text          0x08001c60      0x2a4 ..\obj\Usart.o
                0x08001ce4                USART1_IRQHandler
                0x08001d44                usartConfig
                0x08001df8                insertDataIntoRxBuffer
                0x08001e4c                resetRxBuffer
                0x08001e70                readRxBuffer
                0x08001ec4                printString
 .text          0x08001f04      0x5e8 ..\obj\stm32f10x_gpio.o
                0x08001f04                GPIO_DeInit
                0x08001fe8                GPIO_AFIODeInit
                0x08002000                GPIO_Init
                0x08002178                GPIO_StructInit
                0x080021a0                GPIO_ReadInputDataBit
                0x080021d4                GPIO_ReadInputData
                0x080021ec                GPIO_ReadOutputDataBit
                0x08002220                GPIO_ReadOutputData
                0x08002238                GPIO_SetBits
                0x08002254                GPIO_ResetBits
                0x08002270                GPIO_WriteBit
                0x080022a0                GPIO_Write
                0x080022bc                GPIO_PinLockConfig
                0x08002300                GPIO_EventOutputConfig
                0x0800234c                GPIO_EventOutputCmd
                0x0800236c                GPIO_PinRemapConfig
                0x0800244c                GPIO_EXTILineConfig
                0x080024d0                GPIO_ETH_MediaInterfaceConfig
 .text          0x080024ec      0x7d0 ..\obj\stm32f10x_rcc.o
                0x080024ec                RCC_DeInit
                0x08002548                RCC_HSEConfig
                0x080025a4                RCC_WaitForHSEStartUp
                0x080025f4                RCC_AdjustHSICalibrationValue
                0x08002630                RCC_HSICmd
                0x08002650                RCC_PLLConfig
                0x0800268c                RCC_PLLCmd
                0x080026ac                RCC_SYSCLKConfig
                0x080026e4                RCC_GetSYSCLKSource
                0x08002700                RCC_HCLKConfig
                0x08002738                RCC_PCLK1Config
                0x08002770                RCC_PCLK2Config
                0x080027a8                RCC_ITConfig
                0x080027f4                RCC_USBCLKConfig
                0x08002810                RCC_ADCCLKConfig
                0x08002848                RCC_LSEConfig
                0x08002888                RCC_LSICmd
                0x080028a8                RCC_RTCCLKConfig
                0x080028cc                RCC_RTCCLKCmd
                0x080028ec                RCC_GetClocksFreq
                0x08002a4c                RCC_AHBPeriphClockCmd
                0x08002a88                RCC_APB2PeriphClockCmd
                0x08002ac4                RCC_APB1PeriphClockCmd
                0x08002b00                RCC_APB2PeriphResetCmd
                0x08002b3c                RCC_APB1PeriphResetCmd
                0x08002b78                RCC_BackupResetCmd
                0x08002b98                RCC_ClockSecuritySystemCmd
                0x08002bb8                RCC_MCOConfig
                0x08002bd8                RCC_GetFlagStatus
                0x08002c4c                RCC_ClearFlag
                0x08002c68                RCC_GetITStatus
                0x08002c9c                RCC_ClearITPendingBit
 .text          0x08002cbc      0x104 ..\obj\Spi.o
                0x08002cbc                triggerOutputData
                0x08002cd8                SpiConfig
 .text          0x08002dc0       0xf0 ..\obj\Motor.o
                0x08002dc0                motorInit
                0x08002e00                motorConfig
                0x08002e48                getMotorInfo
 .text          0x08002eb0      0x3f8 ..\obj\stm32f10x_dma.o
                0x08002eb0                DMA_DeInit
                0x08003028                DMA_Init
                0x080030a4                DMA_StructInit
                0x080030f8                DMA_Cmd
                0x08003130                DMA_ITConfig
                0x0800316c                DMA_SetCurrDataCounter
                0x08003188                DMA_GetCurrDataCounter
                0x080031a0                DMA_GetFlagStatus
                0x080031f0                DMA_ClearFlag
                0x08003224                DMA_GetITStatus
                0x08003274                DMA_ClearITPendingBit
 .text          0x080032a8      0x248 ..\obj\system_stm32f10x.o
                0x080032a8                SystemInit
                0x08003310                SystemCoreClockUpdate
 .text          0x080034f0       0xd0 ..\obj\Gpio.o
                0x080034f0                GpioConfig
 .text          0x080035c0     0x1e0c ..\obj\stm32f10x_tim.o
                0x080035c0                TIM_DeInit
                0x080037ec                TIM_TimeBaseInit
                0x080038e4                TIM_OC1Init
                0x080039fc                TIM_OC2Init
                0x08003b0c                TIM_OC3Init
                0x08003c18                TIM_OC4Init
                0x08003ce8                TIM_ICInit
                0x08003d90                TIM_PWMIConfig
                0x08003e48                TIM_BDTRConfig
                0x08003e98                TIM_TimeBaseStructInit
                0x08003ecc                TIM_OCStructInit
                0x08003f10                TIM_ICStructInit
                0x08003f40                TIM_BDTRStructInit
                0x08003f7c                TIM_Cmd
                0x08003fbc                TIM_CtrlPWMOutputs
                0x08004008                TIM_ITConfig
                0x08004050                TIM_GenerateEvent
                0x0800406c                TIM_DMAConfig
                0x08004094                TIM_DMACmd
                0x080040dc                TIM_InternalClockConfig
                0x08004100                TIM_ITRxExternalClockConfig
                0x08004130                TIM_TIxExternalClockConfig
                0x0800418c                TIM_ETRClockMode1Config
                0x080041ec                TIM_ETRClockMode2Config
                0x0800422c                TIM_ETRConfig
                0x08004280                TIM_PrescalerConfig
                0x080042a8                TIM_CounterModeConfig
                0x080042e0                TIM_SelectInputTrigger
                0x08004318                TIM_EncoderInterfaceConfig
                0x080043b0                TIM_ForcedOC1Config
                0x080043e8                TIM_ForcedOC2Config
                0x08004424                TIM_ForcedOC3Config
                0x0800445c                TIM_ForcedOC4Config
                0x08004498                TIM_ARRPreloadConfig
                0x080044d8                TIM_SelectCOM
                0x08004518                TIM_SelectCCDMA
                0x08004558                TIM_CCPreloadControl
                0x08004598                TIM_OC1PreloadConfig
                0x080045d0                TIM_OC2PreloadConfig
                0x0800460c                TIM_OC3PreloadConfig
                0x08004644                TIM_OC4PreloadConfig
                0x08004680                TIM_OC1FastConfig
                0x080046b8                TIM_OC2FastConfig
                0x080046f4                TIM_OC3FastConfig
                0x0800472c                TIM_OC4FastConfig
                0x08004768                TIM_ClearOC1Ref
                0x080047a0                TIM_ClearOC2Ref
                0x080047dc                TIM_ClearOC3Ref
                0x08004814                TIM_ClearOC4Ref
                0x08004850                TIM_OC1PolarityConfig
                0x08004888                TIM_OC1NPolarityConfig
                0x080048c0                TIM_OC2PolarityConfig
                0x080048fc                TIM_OC2NPolarityConfig
                0x08004938                TIM_OC3PolarityConfig
                0x08004974                TIM_OC3NPolarityConfig
                0x080049b0                TIM_OC4PolarityConfig
                0x080049ec                TIM_CCxCmd
                0x08004a44                TIM_CCxNCmd
                0x08004a9c                TIM_SelectOCxM
                0x08004b48                TIM_UpdateDisableConfig
                0x08004b88                TIM_UpdateRequestConfig
                0x08004bc8                TIM_SelectHallSensor
                0x08004c08                TIM_SelectOnePulseMode
                0x08004c40                TIM_SelectOutputTrigger
                0x08004c78                TIM_SelectSlaveMode
                0x08004cb0                TIM_SelectMasterSlaveMode
                0x08004ce8                TIM_SetCounter
                0x08004d04                TIM_SetAutoreload
                0x08004d20                TIM_SetCompare1
                0x08004d3c                TIM_SetCompare2
                0x08004d58                TIM_SetCompare3
                0x08004d74                TIM_SetCompare4
                0x08004d94                TIM_SetIC1Prescaler
                0x08004dcc                TIM_SetIC2Prescaler
                0x08004e08                TIM_SetIC3Prescaler
                0x08004e40                TIM_SetIC4Prescaler
                0x08004e7c                TIM_SetClockDivision
                0x08004eb4                TIM_GetCapture1
                0x08004ecc                TIM_GetCapture2
                0x08004ee4                TIM_GetCapture3
                0x08004efc                TIM_GetCapture4
                0x08004f18                TIM_GetCounter
                0x08004f30                TIM_GetPrescaler
                0x08004f48                TIM_GetFlagStatus
                0x08004f80                TIM_ClearFlag
                0x08004fa0                TIM_GetITStatus
                0x08004ff4                TIM_ClearITPendingBit
 .text          0x080053cc      0x2fc ..\obj\Planner.o
                0x080053cc                planLineBlock
                0x080053e4                discardCurrentBlock
                0x08005418                getCurrentBlock
                0x08005458                planInit
                0x08005498                nextBlockIndex
                0x080054c0                prevBlockIndex
                0x080054e8                _ceil
                0x08005520                _floor
                0x08005538                blockConfig
                0x080055d8                estimateAccelStepAndDeccelStep
                0x0800566c                estimateDeccelerationStep
                0x0800567c                estimateAccelerationStep
 .text          0x080056c8      0x6e8 ..\obj\stm32f10x_spi.o
                0x080056c8                SPI_I2S_DeInit
                0x0800573c                SPI_Init
                0x080057c4                I2S_Init
                0x0800592c                SPI_StructInit
                0x08005974                I2S_StructInit
                0x080059ac                SPI_Cmd
                0x080059ec                I2S_Cmd
                0x08005a2c                SPI_I2S_ITConfig
                0x08005a8c                SPI_I2S_DMACmd
                0x08005ad4                SPI_I2S_SendData
                0x08005af0                SPI_I2S_ReceiveData
                0x08005b08                SPI_NSSInternalSoftwareConfig
                0x08005b4c                SPI_SSOutputCmd
                0x08005b8c                SPI_DataSizeConfig
                0x08005bc4                SPI_TransmitCRC
                0x08005be8                SPI_CalculateCRC
                0x08005c28                SPI_GetCRC
                0x08005c58                SPI_GetCRCPolynomial
                0x08005c70                SPI_BiDirectionalLineConfig
                0x08005cb0                SPI_I2S_GetFlagStatus
                0x08005ce8                SPI_I2S_ClearFlag
                0x08005d08                SPI_I2S_GetITStatus
                0x08005d7c                SPI_I2S_ClearITPendingBit
 .text          0x08005db0      0x228 ..\obj\main.o
                0x08005db0                main
                0x08005dec                usartInit
                0x08005e24                motorInfoBufferInit
                0x08005ec0                motorDriveBufferInit
                0x08005eec                dmaInit
                0x08005f34                timInit
                0x08005f60                spiInit
                0x08005fbc                gpioInit
 .text          0x08005fd8      0x21c c:/program files (x86)/gnu tools arm embedded/5.3 2016q1/bin/../lib/gcc/arm-none-eabi/5.3.1/armv7-m\libgcc.a(_arm_addsubsf3.o)
                0x08005fd8                __aeabi_frsub
                0x08005fe0                __subsf3
                0x08005fe0                __aeabi_fsub
                0x08005fe4                __aeabi_fadd
                0x08005fe4                __addsf3
                0x08006144                __aeabi_ui2f
                0x08006144                __floatunsisf
                0x0800614c                __aeabi_i2f
                0x0800614c                __floatsisf
                0x08006168                __aeabi_ul2f
                0x08006168                __floatundisf
                0x08006178                __aeabi_l2f
                0x08006178                __floatdisf
 .text          0x080061f4      0x2a0 c:/program files (x86)/gnu tools arm embedded/5.3 2016q1/bin/../lib/gcc/arm-none-eabi/5.3.1/armv7-m\libgcc.a(_arm_muldivsf3.o)
                0x080061f4                __mulsf3
                0x080061f4                __aeabi_fmul
                0x0800635c                __aeabi_fdiv
                0x0800635c                __divsf3
 .text          0x08006494       0xec c:/program files (x86)/gnu tools arm embedded/5.3 2016q1/bin/../lib/gcc/arm-none-eabi/5.3.1/armv7-m\libgcc.a(_arm_cmpsf2.o)
                0x08006494                __gesf2
                0x08006494                __gtsf2
                0x0800649c                __lesf2
                0x0800649c                __ltsf2
                0x080064a4                __nesf2
                0x080064a4                __eqsf2
                0x080064a4                __cmpsf2
                0x08006504                __aeabi_cfrcmple
                0x0800650c                __aeabi_cfcmpeq
                0x0800650c                __aeabi_cfcmple
                0x0800651c                __aeabi_fcmpeq
                0x08006530                __aeabi_fcmplt
                0x08006544                __aeabi_fcmple
                0x08006558                __aeabi_fcmpge
                0x0800656c                __aeabi_fcmpgt
 .text          0x08006580       0x40 c:/program files (x86)/gnu tools arm embedded/5.3 2016q1/bin/../lib/gcc/arm-none-eabi/5.3.1/armv7-m\libgcc.a(_arm_fixunssfsi.o)
                0x08006580                __fixunssfsi
                0x08006580                __aeabi_f2uiz
 *(.text*)
 .text.__libc_init_array
                0x080065c0       0x50 c:/program files (x86)/gnu tools arm embedded/5.3 2016q1/bin/../lib/gcc/arm-none-eabi/5.3.1/../../../../arm-none-eabi/lib/armv7-m\libc.a(lib_a-init.o)
                0x080065c0                __libc_init_array
 .text.memset   0x08006610       0x9c c:/program files (x86)/gnu tools arm embedded/5.3 2016q1/bin/../lib/gcc/arm-none-eabi/5.3.1/../../../../arm-none-eabi/lib/armv7-m\libc.a(lib_a-memset.o)
                0x08006610                memset
 .text.startup.register_fini
                0x080066ac       0x14 c:/program files (x86)/gnu tools arm embedded/5.3 2016q1/bin/../lib/gcc/arm-none-eabi/5.3.1/../../../../arm-none-eabi/lib/armv7-m\libc.a(lib_a-__call_atexit.o)
 .text.atexit   0x080066c0        0xc c:/program files (x86)/gnu tools arm embedded/5.3 2016q1/bin/../lib/gcc/arm-none-eabi/5.3.1/../../../../arm-none-eabi/lib/armv7-m\libc.a(lib_a-atexit.o)
                0x080066c0                atexit
 .text.__libc_fini_array
                0x080066cc       0x28 c:/program files (x86)/gnu tools arm embedded/5.3 2016q1/bin/../lib/gcc/arm-none-eabi/5.3.1/../../../../arm-none-eabi/lib/armv7-m\libc.a(lib_a-fini.o)
                0x080066cc                __libc_fini_array
 .text.__register_exitproc
                0x080066f4       0xa4 c:/program files (x86)/gnu tools arm embedded/5.3 2016q1/bin/../lib/gcc/arm-none-eabi/5.3.1/../../../../arm-none-eabi/lib/armv7-m\libc.a(lib_a-__atexit.o)
                0x080066f4                __register_exitproc
 .text.Reset_Handler
                0x08006798       0x48 ..\obj\startup_stm32f103xb.o
                0x08006798                Reset_Handler
 .text.Default_Handler
                0x080067e0        0x2 ..\obj\startup_stm32f103xb.o
                0x080067e0                RTC_Alarm_IRQHandler
                0x080067e0                EXTI2_IRQHandler
                0x080067e0                DebugMon_Handler
                0x080067e0                TIM1_CC_IRQHandler
                0x080067e0                HardFault_Handler
                0x080067e0                SysTick_Handler
                0x080067e0                PVD_IRQHandler
                0x080067e0                PendSV_Handler
                0x080067e0                NMI_Handler
                0x080067e0                EXTI3_IRQHandler
                0x080067e0                EXTI0_IRQHandler
                0x080067e0                I2C2_EV_IRQHandler
                0x080067e0                UsageFault_Handler
                0x080067e0                ADC1_2_IRQHandler
                0x080067e0                SPI1_IRQHandler
                0x080067e0                TAMPER_IRQHandler
                0x080067e0                DMA1_Channel4_IRQHandler
                0x080067e0                USART3_IRQHandler
                0x080067e0                RTC_IRQHandler
                0x080067e0                DMA1_Channel7_IRQHandler
                0x080067e0                CAN1_RX1_IRQHandler
                0x080067e0                TIM4_IRQHandler
                0x080067e0                I2C1_EV_IRQHandler
                0x080067e0                DMA1_Channel6_IRQHandler
                0x080067e0                TIM3_IRQHandler
                0x080067e0                RCC_IRQHandler
                0x080067e0                TIM1_TRG_COM_IRQHandler
                0x080067e0                DMA1_Channel1_IRQHandler
                0x080067e0                Default_Handler
                0x080067e0                EXTI15_10_IRQHandler
                0x080067e0                EXTI9_5_IRQHandler
                0x080067e0                SPI2_IRQHandler
                0x080067e0                MemManage_Handler
                0x080067e0                SVC_Handler
                0x080067e0                DMA1_Channel5_IRQHandler
                0x080067e0                EXTI4_IRQHandler
                0x080067e0                USB_LP_CAN1_RX0_IRQHandler
                0x080067e0                USB_HP_CAN1_TX_IRQHandler
                0x080067e0                TIM1_UP_IRQHandler
                0x080067e0                WWDG_IRQHandler
                0x080067e0                TIM1_BRK_IRQHandler
                0x080067e0                EXTI1_IRQHandler
                0x080067e0                USART2_IRQHandler
                0x080067e0                I2C2_ER_IRQHandler
                0x080067e0                DMA1_Channel2_IRQHandler
                0x080067e0                CAN1_SCE_IRQHandler
                0x080067e0                FLASH_IRQHandler
                0x080067e0                BusFault_Handler
                0x080067e0                I2C1_ER_IRQHandler
                0x080067e0                USBWakeUp_IRQHandler
 *fill*         0x080067e2        0x2 
 .text.__errno  0x080067e4        0xc c:/program files (x86)/gnu tools arm embedded/5.3 2016q1/bin/../lib/gcc/arm-none-eabi/5.3.1/../../../../arm-none-eabi/lib/armv7-m\libg_nano.a(lib_a-errno.o)
                0x080067e4                __errno
 .text.malloc   0x080067f0       0x10 c:/program files (x86)/gnu tools arm embedded/5.3 2016q1/bin/../lib/gcc/arm-none-eabi/5.3.1/../../../../arm-none-eabi/lib/armv7-m\libg_nano.a(lib_a-malloc.o)
                0x080067f0                malloc
 .text._malloc_r
                0x08006800       0xa8 c:/program files (x86)/gnu tools arm embedded/5.3 2016q1/bin/../lib/gcc/arm-none-eabi/5.3.1/../../../../arm-none-eabi/lib/armv7-m\libg_nano.a(lib_a-nano-mallocr.o)
                0x08006800                _malloc_r
 .text._sbrk_r  0x080068a8       0x20 c:/program files (x86)/gnu tools arm embedded/5.3 2016q1/bin/../lib/gcc/arm-none-eabi/5.3.1/../../../../arm-none-eabi/lib/armv7-m\libg_nano.a(lib_a-sbrkr.o)
                0x080068a8                _sbrk_r
 *(.glue_7)
 .glue_7        0x080068c8        0x0 linker stubs
 *(.glue_7t)
 .glue_7t       0x080068c8        0x0 linker stubs
 *(.eh_frame)
 .eh_frame      0x080068c8        0x0 c:/program files (x86)/gnu tools arm embedded/5.3 2016q1/bin/../lib/gcc/arm-none-eabi/5.3.1/armv7-m/crtbegin.o
 *(.init)
 .init          0x080068c8        0x4 c:/program files (x86)/gnu tools arm embedded/5.3 2016q1/bin/../lib/gcc/arm-none-eabi/5.3.1/armv7-m/crti.o
                0x080068c8                _init
 .init          0x080068cc        0x8 c:/program files (x86)/gnu tools arm embedded/5.3 2016q1/bin/../lib/gcc/arm-none-eabi/5.3.1/armv7-m/crtn.o
 *(.fini)
 .fini          0x080068d4        0x4 c:/program files (x86)/gnu tools arm embedded/5.3 2016q1/bin/../lib/gcc/arm-none-eabi/5.3.1/armv7-m/crti.o
                0x080068d4                _fini
 .fini          0x080068d8        0x8 c:/program files (x86)/gnu tools arm embedded/5.3 2016q1/bin/../lib/gcc/arm-none-eabi/5.3.1/armv7-m/crtn.o
                0x080068e0                . = ALIGN (0x4)
                0x080068e0                _etext = .

.vfp11_veneer   0x080068e0        0x0
 .vfp11_veneer  0x080068e0        0x0 linker stubs

.v4_bx          0x080068e0        0x0
 .v4_bx         0x080068e0        0x0 linker stubs

.iplt           0x080068e0        0x0
 .iplt          0x080068e0        0x0 c:/program files (x86)/gnu tools arm embedded/5.3 2016q1/bin/../lib/gcc/arm-none-eabi/5.3.1/armv7-m/crtbegin.o

.rodata         0x080068e0       0x34
                0x080068e0                . = ALIGN (0x4)
 *(.rodata)
 .rodata        0x080068e0       0x19 ..\obj\Protocol.o
 *fill*         0x080068f9        0x3 
 .rodata        0x080068fc        0xf ..\obj\Usart.o
 *(.rodata*)
 *fill*         0x0800690b        0x1 
 .rodata.str1.4
                0x0800690c        0x4 c:/program files (x86)/gnu tools arm embedded/5.3 2016q1/bin/../lib/gcc/arm-none-eabi/5.3.1/../../../../arm-none-eabi/lib/armv7-m\libc.a(lib_a-impure.o)
                                  0x2 (size before relaxing)
 .rodata._global_impure_ptr
                0x08006910        0x4 c:/program files (x86)/gnu tools arm embedded/5.3 2016q1/bin/../lib/gcc/arm-none-eabi/5.3.1/../../../../arm-none-eabi/lib/armv7-m\libc.a(lib_a-impure.o)
                0x08006910                _global_impure_ptr
                0x08006914                . = ALIGN (0x4)

.rel.dyn        0x08006914        0x0
 .rel.iplt      0x08006914        0x0 c:/program files (x86)/gnu tools arm embedded/5.3 2016q1/bin/../lib/gcc/arm-none-eabi/5.3.1/armv7-m/crtbegin.o

.ARM.extab
 *(.ARM.extab* .gnu.linkonce.armextab.*)

.ARM            0x08006914        0x0
                0x08006914                __exidx_start = .
 *(.ARM.exidx*)
                0x08006914                __exidx_end = .

.preinit_array  0x08006914        0x0
                0x08006914                PROVIDE (__preinit_array_start, .)
 *(.preinit_array*)
                0x08006914                PROVIDE (__preinit_array_end, .)

.init_array     0x08006914        0x8
                0x08006914                PROVIDE (__init_array_start, .)
 *(SORT(.init_array.*))
 .init_array.00000
                0x08006914        0x4 c:/program files (x86)/gnu tools arm embedded/5.3 2016q1/bin/../lib/gcc/arm-none-eabi/5.3.1/../../../../arm-none-eabi/lib/armv7-m\libc.a(lib_a-__call_atexit.o)
 *(.init_array*)
 .init_array    0x08006918        0x4 c:/program files (x86)/gnu tools arm embedded/5.3 2016q1/bin/../lib/gcc/arm-none-eabi/5.3.1/armv7-m/crtbegin.o
                0x0800691c                PROVIDE (__init_array_end, .)

.fini_array     0x0800691c        0x4
                0x0800691c                PROVIDE (__fini_array_start, .)
 *(SORT(.fini_array.*))
 *(.fini_array*)
 .fini_array    0x0800691c        0x4 c:/program files (x86)/gnu tools arm embedded/5.3 2016q1/bin/../lib/gcc/arm-none-eabi/5.3.1/armv7-m/crtbegin.o
                0x08006920                PROVIDE (__fini_array_end, .)
                0x08006920                _sidata = LOADADDR (.data)

.data           0x20000000      0x454 load address 0x08006920
                0x20000000                . = ALIGN (0x4)
                0x20000000                _sdata = .
 *(.data)
 .data          0x20000000       0x14 ..\obj\stm32f10x_rcc.o
 .data          0x20000014       0x14 ..\obj\system_stm32f10x.o
                0x20000014                SystemCoreClock
                0x20000018                AHBPrescTable
 *(.data*)
 .data.impure_data
                0x20000028      0x428 c:/program files (x86)/gnu tools arm embedded/5.3 2016q1/bin/../lib/gcc/arm-none-eabi/5.3.1/../../../../arm-none-eabi/lib/armv7-m\libc.a(lib_a-impure.o)
 .data._impure_ptr
                0x20000450        0x4 c:/program files (x86)/gnu tools arm embedded/5.3 2016q1/bin/../lib/gcc/arm-none-eabi/5.3.1/../../../../arm-none-eabi/lib/armv7-m\libc.a(lib_a-impure.o)
                0x20000450                _impure_ptr
                0x20000454                . = ALIGN (0x4)
                0x20000454                _edata = .

.jcr            0x20000454        0x0 load address 0x08006d74
 .jcr           0x20000454        0x0 c:/program files (x86)/gnu tools arm embedded/5.3 2016q1/bin/../lib/gcc/arm-none-eabi/5.3.1/armv7-m/crtbegin.o

.igot.plt       0x20000454        0x0 load address 0x08006d74
 .igot.plt      0x20000454        0x0 c:/program files (x86)/gnu tools arm embedded/5.3 2016q1/bin/../lib/gcc/arm-none-eabi/5.3.1/armv7-m/crtbegin.o
                0x20000454                . = ALIGN (0x4)

.bss            0x20000454      0x5d8 load address 0x08006d74
                0x20000454                _sbss = .
                0x20000454                __bss_start__ = _sbss
 *(.bss)
 .bss           0x20000454       0x1c c:/program files (x86)/gnu tools arm embedded/5.3 2016q1/bin/../lib/gcc/arm-none-eabi/5.3.1/armv7-m/crtbegin.o
 .bss           0x20000470        0x8 ..\obj\syscalls.o
                0x20000470                __env
 *(.bss*)
 .bss.__malloc_sbrk_start
                0x20000478        0x4 c:/program files (x86)/gnu tools arm embedded/5.3 2016q1/bin/../lib/gcc/arm-none-eabi/5.3.1/../../../../arm-none-eabi/lib/armv7-m\libg_nano.a(lib_a-nano-mallocr.o)
                0x20000478                __malloc_sbrk_start
 .bss.__malloc_free_list
                0x2000047c        0x4 c:/program files (x86)/gnu tools arm embedded/5.3 2016q1/bin/../lib/gcc/arm-none-eabi/5.3.1/../../../../arm-none-eabi/lib/armv7-m\libg_nano.a(lib_a-nano-mallocr.o)
                0x2000047c                __malloc_free_list
 *(COMMON)
 COMMON         0x20000480      0x120 ..\obj\Protocol.o
                0x20000480                charCounter
                0x20000484                line
                0x20000584                plExecutor
 COMMON         0x200005a0       0x3e ..\obj\Stepper.o
                0x200005a0                currentBlock
                0x200005a4                wakeUpState
                0x200005a8                stExecutor
                0x200005dc                availableInsertBlock
                0x200005dd                outputBits
 *fill*         0x200005de        0x2 
 COMMON         0x200005e0        0xb ..\obj\Dma.o
                0x200005e0                motorInfoBuffer
                0x200005e8                motorDriveBuffer
 *fill*         0x200005eb        0x1 
 COMMON         0x200005ec      0x104 ..\obj\Usart.o
                0x200005ec                rxBufferHead
                0x200005ee                rxBufferTail
                0x200005f0                rxBuffer
 COMMON         0x200006f0        0xc ..\obj\Motor.o
                0x200006f0                motor2
                0x200006f4                motor1
                0x200006f8                motor0
 COMMON         0x200006fc      0x31e ..\obj\Planner.o
                0x200006fc                bufferTail
                0x20000700                blockBuffer
                0x20000a18                bufferHead
                0x20000a19                nextBufferHead
 *fill*         0x20000a1a        0x2 
 COMMON         0x20000a1c        0xc ..\obj\System.o
                0x20000a1c                sys
 COMMON         0x20000a28        0x4 c:/program files (x86)/gnu tools arm embedded/5.3 2016q1/bin/../lib/gcc/arm-none-eabi/5.3.1/../../../../arm-none-eabi/lib/armv7-m\libg_nano.a(lib_a-reent.o)
                0x20000a28                errno
                0x20000a2c                . = ALIGN (0x4)
                0x20000a2c                _ebss = .
                0x20000a2c                __bss_end__ = _ebss

._user_heap_stack
                0x20000a2c      0x600 load address 0x08006d74
                0x20000a2c                . = ALIGN (0x4)
                0x20000a2c                PROVIDE (end, .)
                [!provide]                PROVIDE (_end, .)
                0x20000c2c                . = (. + _Min_Heap_Size)
 *fill*         0x20000a2c      0x200 
                0x2000102c                . = (. + _Min_Stack_Size)
 *fill*         0x20000c2c      0x400 
                0x2000102c                . = ALIGN (0x4)

/DISCARD/
 libc.a(*)
 libm.a(*)
 libgcc.a(*)

.ARM.attributes
                0x00000000       0x29
 *(.ARM.attributes)
 .ARM.attributes
                0x00000000       0x1d c:/program files (x86)/gnu tools arm embedded/5.3 2016q1/bin/../lib/gcc/arm-none-eabi/5.3.1/armv7-m/crti.o
 .ARM.attributes
                0x0000001d       0x2d c:/program files (x86)/gnu tools arm embedded/5.3 2016q1/bin/../lib/gcc/arm-none-eabi/5.3.1/armv7-m/crtbegin.o
 .ARM.attributes
                0x0000004a       0x33 ..\obj\Protocol.o
 .ARM.attributes
                0x0000007d       0x33 ..\obj\syscalls.o
 .ARM.attributes
                0x000000b0       0x33 ..\obj\Stepper.o
 .ARM.attributes
                0x000000e3       0x33 ..\obj\stm32f10x_usart.o
 .ARM.attributes
                0x00000116       0x33 ..\obj\Tim.o
 .ARM.attributes
                0x00000149       0x33 ..\obj\Dma.o
 .ARM.attributes
                0x0000017c       0x33 ..\obj\Usart.o
 .ARM.attributes
                0x000001af       0x33 ..\obj\stm32f10x_gpio.o
 .ARM.attributes
                0x000001e2       0x33 ..\obj\stm32f10x_rcc.o
 .ARM.attributes
                0x00000215       0x33 ..\obj\Spi.o
 .ARM.attributes
                0x00000248       0x33 ..\obj\Motor.o
 .ARM.attributes
                0x0000027b       0x33 ..\obj\stm32f10x_dma.o
 .ARM.attributes
                0x000002ae       0x33 ..\obj\system_stm32f10x.o
 .ARM.attributes
                0x000002e1       0x21 ..\obj\startup_stm32f103xb.o
 .ARM.attributes
                0x00000302       0x33 ..\obj\Gpio.o
 .ARM.attributes
                0x00000335       0x33 ..\obj\stm32f10x_tim.o
 .ARM.attributes
                0x00000368       0x33 ..\obj\Planner.o
 .ARM.attributes
                0x0000039b       0x33 ..\obj\System.o
 .ARM.attributes
                0x000003ce       0x33 ..\obj\stm32f10x_spi.o
 .ARM.attributes
                0x00000401       0x33 ..\obj\main.o
 .ARM.attributes
                0x00000434       0x1d c:/program files (x86)/gnu tools arm embedded/5.3 2016q1/bin/../lib/gcc/arm-none-eabi/5.3.1/armv7-m\libgcc.a(_arm_addsubsf3.o)
 .ARM.attributes
                0x00000451       0x1d c:/program files (x86)/gnu tools arm embedded/5.3 2016q1/bin/../lib/gcc/arm-none-eabi/5.3.1/armv7-m\libgcc.a(_arm_muldivsf3.o)
 .ARM.attributes
                0x0000046e       0x1d c:/program files (x86)/gnu tools arm embedded/5.3 2016q1/bin/../lib/gcc/arm-none-eabi/5.3.1/armv7-m\libgcc.a(_arm_cmpsf2.o)
 .ARM.attributes
                0x0000048b       0x1d c:/program files (x86)/gnu tools arm embedded/5.3 2016q1/bin/../lib/gcc/arm-none-eabi/5.3.1/armv7-m\libgcc.a(_arm_fixunssfsi.o)
 .ARM.attributes
                0x000004a8       0x2d c:/program files (x86)/gnu tools arm embedded/5.3 2016q1/bin/../lib/gcc/arm-none-eabi/5.3.1/../../../../arm-none-eabi/lib/armv7-m\libg_nano.a(lib_a-errno.o)
 .ARM.attributes
                0x000004d5       0x2d c:/program files (x86)/gnu tools arm embedded/5.3 2016q1/bin/../lib/gcc/arm-none-eabi/5.3.1/../../../../arm-none-eabi/lib/armv7-m\libg_nano.a(lib_a-malloc.o)
 .ARM.attributes
                0x00000502       0x2d c:/program files (x86)/gnu tools arm embedded/5.3 2016q1/bin/../lib/gcc/arm-none-eabi/5.3.1/../../../../arm-none-eabi/lib/armv7-m\libg_nano.a(lib_a-nano-mallocr.o)
 .ARM.attributes
                0x0000052f       0x2d c:/program files (x86)/gnu tools arm embedded/5.3 2016q1/bin/../lib/gcc/arm-none-eabi/5.3.1/../../../../arm-none-eabi/lib/armv7-m\libg_nano.a(lib_a-sbrkr.o)
 .ARM.attributes
                0x0000055c       0x2d c:/program files (x86)/gnu tools arm embedded/5.3 2016q1/bin/../lib/gcc/arm-none-eabi/5.3.1/../../../../arm-none-eabi/lib/armv7-m\libg_nano.a(lib_a-reent.o)
 .ARM.attributes
                0x00000589       0x1d c:/program files (x86)/gnu tools arm embedded/5.3 2016q1/bin/../lib/gcc/arm-none-eabi/5.3.1/armv7-m/crtn.o
LOAD ..\obj\SystemMap.o
LOAD ..\obj\Protocol.o
LOAD ..\obj\syscalls.o
LOAD ..\obj\Stepper.o
LOAD ..\obj\stm32f10x_usart.o
LOAD ..\obj\Tim.o
LOAD ..\obj\Dma.o
LOAD ..\obj\Usart.o
LOAD ..\obj\HardwareConfig.o
LOAD ..\obj\stm32f10x_gpio.o
LOAD ..\obj\stm32f10x_rcc.o
LOAD ..\obj\Spi.o
LOAD ..\obj\Motor.o
LOAD ..\obj\stm32f10x_dma.o
LOAD ..\obj\system_stm32f10x.o
LOAD ..\obj\startup_stm32f103xb.o
LOAD ..\obj\Gpio.o
LOAD ..\obj\stm32f10x_tim.o
LOAD ..\obj\Planner.o
LOAD ..\obj\System.o
LOAD ..\obj\stm32f10x_spi.o
LOAD ..\obj\misc.o
LOAD ..\obj\main.o
START GROUP
LOAD c:/program files (x86)/gnu tools arm embedded/5.3 2016q1/bin/../lib/gcc/arm-none-eabi/5.3.1/armv7-m\libgcc.a
LOAD c:/program files (x86)/gnu tools arm embedded/5.3 2016q1/bin/../lib/gcc/arm-none-eabi/5.3.1/../../../../arm-none-eabi/lib/armv7-m\libg_nano.a
LOAD c:/program files (x86)/gnu tools arm embedded/5.3 2016q1/bin/../lib/gcc/arm-none-eabi/5.3.1/../../../../arm-none-eabi/lib/armv7-m\libc_nano.a
END GROUP
START GROUP
LOAD c:/program files (x86)/gnu tools arm embedded/5.3 2016q1/bin/../lib/gcc/arm-none-eabi/5.3.1/armv7-m\libgcc.a
LOAD c:/program files (x86)/gnu tools arm embedded/5.3 2016q1/bin/../lib/gcc/arm-none-eabi/5.3.1/../../../../arm-none-eabi/lib/armv7-m\libc_nano.a
END GROUP
LOAD c:/program files (x86)/gnu tools arm embedded/5.3 2016q1/bin/../lib/gcc/arm-none-eabi/5.3.1/armv7-m/crtend.o
LOAD c:/program files (x86)/gnu tools arm embedded/5.3 2016q1/bin/../lib/gcc/arm-none-eabi/5.3.1/armv7-m/crtn.o
OUTPUT(PCB_Laser_Etcher.elf elf32-littlearm)

.debug_info     0x00000000     0x90ff
 .debug_info    0x00000000      0x6a2 ..\obj\Protocol.o
 .debug_info    0x000006a2      0x663 ..\obj\syscalls.o
 .debug_info    0x00000d05      0xcba ..\obj\Stepper.o
 .debug_info    0x000019bf      0x9f0 ..\obj\stm32f10x_usart.o
 .debug_info    0x000023af      0x8d2 ..\obj\Tim.o
 .debug_info    0x00002c81      0x841 ..\obj\Dma.o
 .debug_info    0x000034c2      0x89d ..\obj\Usart.o
 .debug_info    0x00003d5f      0x6f6 ..\obj\stm32f10x_gpio.o
 .debug_info    0x00004455      0x8a3 ..\obj\stm32f10x_rcc.o
 .debug_info    0x00004cf8      0x364 ..\obj\Spi.o
 .debug_info    0x0000505c      0x1cf ..\obj\Motor.o
 .debug_info    0x0000522b      0x47b ..\obj\stm32f10x_dma.o
 .debug_info    0x000056a6      0x49c ..\obj\system_stm32f10x.o
 .debug_info    0x00005b42       0xce ..\obj\startup_stm32f103xb.o
 .debug_info    0x00005c10      0x25e ..\obj\Gpio.o
 .debug_info    0x00005e6e     0x1c60 ..\obj\stm32f10x_tim.o
 .debug_info    0x00007ace      0x486 ..\obj\Planner.o
 .debug_info    0x00007f54       0xd7 ..\obj\System.o
 .debug_info    0x0000802b      0x8fb ..\obj\stm32f10x_spi.o
 .debug_info    0x00008926      0x7d9 ..\obj\main.o

.debug_abbrev   0x00000000     0x1c19
 .debug_abbrev  0x00000000      0x1bf ..\obj\Protocol.o
 .debug_abbrev  0x000001bf      0x174 ..\obj\syscalls.o
 .debug_abbrev  0x00000333      0x2a0 ..\obj\Stepper.o
 .debug_abbrev  0x000005d3      0x164 ..\obj\stm32f10x_usart.o
 .debug_abbrev  0x00000737      0x188 ..\obj\Tim.o
 .debug_abbrev  0x000008bf      0x1c0 ..\obj\Dma.o
 .debug_abbrev  0x00000a7f      0x1f9 ..\obj\Usart.o
 .debug_abbrev  0x00000c78      0x1cc ..\obj\stm32f10x_gpio.o
 .debug_abbrev  0x00000e44      0x1bc ..\obj\stm32f10x_rcc.o
 .debug_abbrev  0x00001000      0x110 ..\obj\Spi.o
 .debug_abbrev  0x00001110       0xd9 ..\obj\Motor.o
 .debug_abbrev  0x000011e9      0x157 ..\obj\stm32f10x_dma.o
 .debug_abbrev  0x00001340      0x14e ..\obj\system_stm32f10x.o
 .debug_abbrev  0x0000148e       0x12 ..\obj\startup_stm32f103xb.o
 .debug_abbrev  0x000014a0      0x118 ..\obj\Gpio.o
 .debug_abbrev  0x000015b8      0x1b2 ..\obj\stm32f10x_tim.o
 .debug_abbrev  0x0000176a      0x14f ..\obj\Planner.o
 .debug_abbrev  0x000018b9       0x8c ..\obj\System.o
 .debug_abbrev  0x00001945      0x180 ..\obj\stm32f10x_spi.o
 .debug_abbrev  0x00001ac5      0x154 ..\obj\main.o

.debug_aranges  0x00000000      0x288
 .debug_aranges
                0x00000000       0x20 ..\obj\Protocol.o
 .debug_aranges
                0x00000020       0x20 ..\obj\syscalls.o
 .debug_aranges
                0x00000040       0x20 ..\obj\Stepper.o
 .debug_aranges
                0x00000060       0x20 ..\obj\stm32f10x_usart.o
 .debug_aranges
                0x00000080       0x20 ..\obj\Tim.o
 .debug_aranges
                0x000000a0       0x20 ..\obj\Dma.o
 .debug_aranges
                0x000000c0       0x20 ..\obj\Usart.o
 .debug_aranges
                0x000000e0       0x20 ..\obj\stm32f10x_gpio.o
 .debug_aranges
                0x00000100       0x20 ..\obj\stm32f10x_rcc.o
 .debug_aranges
                0x00000120       0x20 ..\obj\Spi.o
 .debug_aranges
                0x00000140       0x20 ..\obj\Motor.o
 .debug_aranges
                0x00000160       0x20 ..\obj\stm32f10x_dma.o
 .debug_aranges
                0x00000180       0x20 ..\obj\system_stm32f10x.o
 .debug_aranges
                0x000001a0       0x28 ..\obj\startup_stm32f103xb.o
 .debug_aranges
                0x000001c8       0x20 ..\obj\Gpio.o
 .debug_aranges
                0x000001e8       0x20 ..\obj\stm32f10x_tim.o
 .debug_aranges
                0x00000208       0x20 ..\obj\Planner.o
 .debug_aranges
                0x00000228       0x20 ..\obj\System.o
 .debug_aranges
                0x00000248       0x20 ..\obj\stm32f10x_spi.o
 .debug_aranges
                0x00000268       0x20 ..\obj\main.o

.debug_line     0x00000000     0x377b
 .debug_line    0x00000000      0x266 ..\obj\Protocol.o
 .debug_line    0x00000266      0x17c ..\obj\syscalls.o
 .debug_line    0x000003e2      0x33c ..\obj\Stepper.o
 .debug_line    0x0000071e      0x3bd ..\obj\stm32f10x_usart.o
 .debug_line    0x00000adb      0x2cb ..\obj\Tim.o
 .debug_line    0x00000da6      0x2df ..\obj\Dma.o
 .debug_line    0x00001085      0x2a6 ..\obj\Usart.o
 .debug_line    0x0000132b      0x367 ..\obj\stm32f10x_gpio.o
 .debug_line    0x00001692      0x3b0 ..\obj\stm32f10x_rcc.o
 .debug_line    0x00001a42      0x280 ..\obj\Spi.o
 .debug_line    0x00001cc2      0x16a ..\obj\Motor.o
 .debug_line    0x00001e2c      0x32f ..\obj\stm32f10x_dma.o
 .debug_line    0x0000215b      0x22b ..\obj\system_stm32f10x.o
 .debug_line    0x00002386       0xb8 ..\obj\startup_stm32f103xb.o
 .debug_line    0x0000243e      0x28a ..\obj\Gpio.o
 .debug_line    0x000026c8      0x72c ..\obj\stm32f10x_tim.o
 .debug_line    0x00002df4      0x19d ..\obj\Planner.o
 .debug_line    0x00002f91      0x148 ..\obj\System.o
 .debug_line    0x000030d9      0x37e ..\obj\stm32f10x_spi.o
 .debug_line    0x00003457      0x324 ..\obj\main.o

.debug_str      0x00000000     0x326c
 .debug_str     0x00000000      0x6cf ..\obj\Protocol.o
                                0x726 (size before relaxing)
 .debug_str     0x000006cf      0x28a ..\obj\syscalls.o
                                0x3be (size before relaxing)
 .debug_str     0x00000959      0x46f ..\obj\Stepper.o
                                0xae0 (size before relaxing)
 .debug_str     0x00000dc8      0x4e3 ..\obj\stm32f10x_usart.o
                                0x6a7 (size before relaxing)
 .debug_str     0x000012ab      0x13e ..\obj\Tim.o
                                0x7c8 (size before relaxing)
 .debug_str     0x000013e9      0x202 ..\obj\Dma.o
                                0x815 (size before relaxing)
 .debug_str     0x000015eb       0xfc ..\obj\Usart.o
                                0x7aa (size before relaxing)
 .debug_str     0x000016e7      0x39e ..\obj\stm32f10x_gpio.o
                                0x530 (size before relaxing)
 .debug_str     0x00001a85      0x40c ..\obj\stm32f10x_rcc.o
                                0x631 (size before relaxing)
 .debug_str     0x00001e91      0x122 ..\obj\Spi.o
                                0x308 (size before relaxing)
 .debug_str     0x00001fb3       0x85 ..\obj\Motor.o
                                0x1ed (size before relaxing)
 .debug_str     0x00002038      0x148 ..\obj\stm32f10x_dma.o
                                0x3ce (size before relaxing)
 .debug_str     0x00002180       0xca ..\obj\system_stm32f10x.o
                                0x2fa (size before relaxing)
 .debug_str     0x0000224a       0x57 ..\obj\Gpio.o
                                0x2d1 (size before relaxing)
 .debug_str     0x000022a1      0xa7c ..\obj\stm32f10x_tim.o
                                0xdf4 (size before relaxing)
 .debug_str     0x00002d1d      0x187 ..\obj\Planner.o
                                0x3b3 (size before relaxing)
 .debug_str     0x00002ea4       0x48 ..\obj\System.o
                                0x162 (size before relaxing)
 .debug_str     0x00002eec      0x2e2 ..\obj\stm32f10x_spi.o
                                0x614 (size before relaxing)
 .debug_str     0x000031ce       0x9e ..\obj\main.o
                                0x522 (size before relaxing)

.comment        0x00000000       0x6e
 .comment       0x00000000       0x6e ..\obj\Protocol.o
                                 0x6f (size before relaxing)
 .comment       0x0000006e       0x6f ..\obj\syscalls.o
 .comment       0x0000006e       0x6f ..\obj\Stepper.o
 .comment       0x0000006e       0x6f ..\obj\stm32f10x_usart.o
 .comment       0x0000006e       0x6f ..\obj\Tim.o
 .comment       0x0000006e       0x6f ..\obj\Dma.o
 .comment       0x0000006e       0x6f ..\obj\Usart.o
 .comment       0x0000006e       0x6f ..\obj\stm32f10x_gpio.o
 .comment       0x0000006e       0x6f ..\obj\stm32f10x_rcc.o
 .comment       0x0000006e       0x6f ..\obj\Spi.o
 .comment       0x0000006e       0x6f ..\obj\Motor.o
 .comment       0x0000006e       0x6f ..\obj\stm32f10x_dma.o
 .comment       0x0000006e       0x6f ..\obj\system_stm32f10x.o
 .comment       0x0000006e       0x6f ..\obj\Gpio.o
 .comment       0x0000006e       0x6f ..\obj\stm32f10x_tim.o
 .comment       0x0000006e       0x6f ..\obj\Planner.o
 .comment       0x0000006e       0x6f ..\obj\System.o
 .comment       0x0000006e       0x6f ..\obj\stm32f10x_spi.o
 .comment       0x0000006e       0x6f ..\obj\main.o

.debug_frame    0x00000000     0x2fac
 .debug_frame   0x00000000       0xcc ..\obj\Protocol.o
 .debug_frame   0x000000cc      0x2d4 ..\obj\syscalls.o
 .debug_frame   0x000003a0      0x3ac ..\obj\Stepper.o
 .debug_frame   0x0000074c      0x490 ..\obj\stm32f10x_usart.o
 .debug_frame   0x00000bdc       0x84 ..\obj\Tim.o
 .debug_frame   0x00000c60      0x124 ..\obj\Dma.o
 .debug_frame   0x00000d84      0x13c ..\obj\Usart.o
 .debug_frame   0x00000ec0      0x2d0 ..\obj\stm32f10x_gpio.o
 .debug_frame   0x00001190      0x4f4 ..\obj\stm32f10x_rcc.o
 .debug_frame   0x00001684       0x50 ..\obj\Spi.o
 .debug_frame   0x000016d4       0x78 ..\obj\Motor.o
 .debug_frame   0x0000174c      0x1c8 ..\obj\stm32f10x_dma.o
 .debug_frame   0x00001914       0x98 ..\obj\system_stm32f10x.o
 .debug_frame   0x000019ac       0x34 ..\obj\Gpio.o
 .debug_frame   0x000019e0      0xe2c ..\obj\stm32f10x_tim.o
 .debug_frame   0x0000280c      0x1c0 ..\obj\Planner.o
 .debug_frame   0x000029cc       0x30 ..\obj\System.o
 .debug_frame   0x000029fc      0x3a0 ..\obj\stm32f10x_spi.o
 .debug_frame   0x00002d9c      0x10c ..\obj\main.o
 .debug_frame   0x00002ea8       0x20 c:/program files (x86)/gnu tools arm embedded/5.3 2016q1/bin/../lib/gcc/arm-none-eabi/5.3.1/../../../../arm-none-eabi/lib/armv7-m\libg_nano.a(lib_a-errno.o)
 .debug_frame   0x00002ec8       0x30 c:/program files (x86)/gnu tools arm embedded/5.3 2016q1/bin/../lib/gcc/arm-none-eabi/5.3.1/../../../../arm-none-eabi/lib/armv7-m\libg_nano.a(lib_a-malloc.o)
 .debug_frame   0x00002ef8       0x2c c:/program files (x86)/gnu tools arm embedded/5.3 2016q1/bin/../lib/gcc/arm-none-eabi/5.3.1/../../../../arm-none-eabi/lib/armv7-m\libg_nano.a(lib_a-nano-mallocr.o)
 .debug_frame   0x00002f24       0x2c c:/program files (x86)/gnu tools arm embedded/5.3 2016q1/bin/../lib/gcc/arm-none-eabi/5.3.1/../../../../arm-none-eabi/lib/armv7-m\libg_nano.a(lib_a-sbrkr.o)
 .debug_frame   0x00002f50       0x5c c:/program files (x86)/gnu tools arm embedded/5.3 2016q1/bin/../lib/gcc/arm-none-eabi/5.3.1/../../../../arm-none-eabi/lib/armv7-m\libg_nano.a(lib_a-reent.o)

.debug_ranges   0x00000000       0x20
 .debug_ranges  0x00000000       0x20 ..\obj\startup_stm32f103xb.o
